target datalayout = "e-m:e-p270:32:32-p271:32:32-p272:64:64-i64:64-i128:128-f80:128-n8:16:32:64-S128"
target triple = "x86_64-pc-linux-gnu"

%"struct.OpenImageIO::v3_1_0::TypeDesc" = type { i8, i8, i8, i8, i32 }
%"struct.OpenImageIO::v3_1_0::ROI" = type { i32, i32, i32, i32, i32, i32, i32, i32 }
%"class.OpenImageIO::v3_1_0::ImageBuf" = type { %"class.std::unique_ptr" }
%"class.std::unique_ptr" = type { %"struct.std::__uniq_ptr_data" }
%"struct.std::__uniq_ptr_data" = type { %"class.std::__uniq_ptr_impl" }
%"class.std::__uniq_ptr_impl" = type { %"class.std::tuple" }
%"class.std::tuple" = type { %"struct.std::_Tuple_impl" }
%"struct.std::_Tuple_impl" = type { %"struct.std::_Tuple_impl.1", %"struct.std::_Head_base.2" }
%"struct.std::_Tuple_impl.1" = type { %"struct.std::_Head_base" }
%"struct.std::_Head_base" = type { ptr }
%"struct.std::_Head_base.2" = type { ptr }

@.str.9 = private unnamed_addr constant [27 x i8] c"ImageBufAlgo::copy() error\00", align 1

; Function Attrs: mustprogress uwtable
define void @_ZN11OpenImageIO6v3_1_012ImageBufAlgo4copyERKNS0_8ImageBufENS0_8TypeDescENS0_3ROIEi(ptr dead_on_unwind noalias writable sret(%"class.OpenImageIO::v3_1_0::ImageBuf") align 8 %0, ptr noundef nonnull align 8 dereferenceable(16) %1, i64 %2, ptr noundef byval(%"struct.OpenImageIO::v3_1_0::ROI") align 8 %3, i32 noundef %4) #6 personality ptr @__gxx_personality_v0 {
  %6 = alloca ptr, align 8
  %7 = alloca %"struct.OpenImageIO::v3_1_0::TypeDesc", align 4
  %8 = alloca ptr, align 8
  %9 = alloca i32, align 4
  %10 = alloca i1, align 1
  %11 = alloca i8, align 1
  %12 = alloca %"struct.OpenImageIO::v3_1_0::TypeDesc", align 4
  %13 = alloca %"struct.OpenImageIO::v3_1_0::ROI", align 8
  %14 = alloca ptr, align 8
  %15 = alloca i32, align 4
  store ptr %0, ptr %6, align 8
  store i64 %2, ptr %7, align 4
  store ptr %1, ptr %8, align 8, !tbaa !8
  store i32 %4, ptr %9, align 4, !tbaa !10
  store i1 false, ptr %10, align 1
  call void @_ZN11OpenImageIO6v3_1_08ImageBufC1Ev(ptr noundef nonnull align 8 dereferenceable(16) %0)
  call void @llvm.lifetime.start.p0(i64 1, ptr %11) #3
  %16 = load ptr, ptr %8, align 8, !tbaa !8
  call void @llvm.memcpy.p0.p0.i64(ptr align 4 %12, ptr align 4 %7, i64 8, i1 false), !tbaa.struct !22
  call void @llvm.memcpy.p0.p0.i64(ptr align 4 %13, ptr align 8 %3, i64 32, i1 false), !tbaa.struct !12
  %17 = load i32, ptr %9, align 4, !tbaa !10
  %18 = load i64, ptr %12, align 4
  %19 = invoke noundef zeroext i1 @_ZN11OpenImageIO6v3_1_012ImageBufAlgo4copyERNS0_8ImageBufERKS2_NS0_8TypeDescENS0_3ROIEi(ptr noundef nonnull align 8 dereferenceable(16) %0, ptr noundef nonnull align 8 dereferenceable(16) %16, i64 %18, ptr noundef byval(%"struct.OpenImageIO::v3_1_0::ROI") align 8 %13, i32 noundef %17)
          to label %20 unwind label %29

20:                                               ; preds = %5
  %21 = zext i1 %19 to i8
  store i8 %21, ptr %11, align 1, !tbaa !20
  %22 = load i8, ptr %11, align 1, !tbaa !20, !range !26, !noundef !27
  %23 = trunc i8 %22 to i1
  br i1 %23, label %33, label %24

24:                                               ; preds = %20
  %25 = invoke noundef zeroext i1 @_ZNK11OpenImageIO6v3_1_08ImageBuf9has_errorEv(ptr noundef nonnull align 8 dereferenceable(16) %0)
          to label %26 unwind label %29

26:                                               ; preds = %24
  br i1 %25, label %33, label %27

27:                                               ; preds = %26
  invoke void @_ZNK11OpenImageIO6v3_1_08ImageBuf8errorfmtIA27_cJEEEvRKT_DpOT0_(ptr noundef nonnull align 8 dereferenceable(16) %0, ptr noundef nonnull align 1 dereferenceable(27) @.str.9)
          to label %28 unwind label %29

28:                                               ; preds = %27
  br label %33

29:                                               ; preds = %27, %24, %5
  %30 = landingpad { ptr, i32 }
          cleanup
  %31 = extractvalue { ptr, i32 } %30, 0
  store ptr %31, ptr %14, align 8
  %32 = extractvalue { ptr, i32 } %30, 1
  store i32 %32, ptr %15, align 4
  call void @llvm.lifetime.end.p0(i64 1, ptr %11) #3
  call void @_ZN11OpenImageIO6v3_1_08ImageBufD1Ev(ptr noundef nonnull align 8 dereferenceable(16) %0) #3
  br label %37

33:                                               ; preds = %28, %26, %20
  store i1 true, ptr %10, align 1
  call void @llvm.lifetime.end.p0(i64 1, ptr %11) #3
  %34 = load i1, ptr %10, align 1
  br i1 %34, label %36, label %35

35:                                               ; preds = %33
  call void @_ZN11OpenImageIO6v3_1_08ImageBufD1Ev(ptr noundef nonnull align 8 dereferenceable(16) %0) #3
  br label %36

36:                                               ; preds = %35, %33
  ret void

37:                                               ; preds = %29
  %38 = load ptr, ptr %14, align 8
  %39 = load i32, ptr %15, align 4
  %40 = insertvalue { ptr, i32 } poison, ptr %38, 0
  %41 = insertvalue { ptr, i32 } %40, i32 %39, 1
  resume { ptr, i32 } %41
}