; Function Attrs: mustprogress uwtable
define void @_ZN11OpenImageIO6v3_1_012ImageBufAlgo4copyERKNS0_8ImageBufENS0_8TypeDescENS0_3ROIEi(ptr dead_on_unwind noalias nonnull writable sret(%"class.OpenImageIO::v3_1_0::ImageBuf") align 8 %0, ptr noundef nonnull align 8 dereferenceable(16) %1, i64 %2, ptr noundef readonly byval(%"struct.OpenImageIO::v3_1_0::ROI") align 8 captures(none) %3, i32 noundef %4) local_unnamed_addr #5 personality ptr @__gxx_personality_v0 {
  tail call void @_ZN11OpenImageIO6v3_1_08ImageBufC1Ev(ptr noundef nonnull align 8 dereferenceable(16) %0)
  %6 = invoke noundef zeroext i1 @_ZN11OpenImageIO6v3_1_012ImageBufAlgo4copyERNS0_8ImageBufERKS2_NS0_8TypeDescENS0_3ROIEi(ptr noundef nonnull align 8 dereferenceable(16) %0, ptr noundef nonnull align 8 dereferenceable(16) %1, i64 %2, ptr noundef nonnull byval(%"struct.OpenImageIO::v3_1_0::ROI") align 8 %3, i32 noundef %4)
          to label %7 unwind label %12

7:                                                ; preds = %5
  br i1 %6, label %14, label %8

8:                                                ; preds = %7
  %9 = invoke noundef zeroext i1 @_ZNK11OpenImageIO6v3_1_08ImageBuf9has_errorEv(ptr noundef nonnull align 8 dereferenceable(16) %0)
          to label %10 unwind label %12

10:                                               ; preds = %8
  br i1 %9, label %14, label %11

11:                                               ; preds = %10
  invoke void @_ZNK11OpenImageIO6v3_1_08ImageBuf8errorfmtIA27_cJEEEvRKT_DpOT0_(ptr noundef nonnull align 8 dereferenceable(16) %0, ptr noundef nonnull align 1 dereferenceable(27) @.str.9)
          to label %14 unwind label %12

12:                                               ; preds = %11, %8, %5
  %13 = landingpad { ptr, i32 }
          cleanup
  tail call void @_ZN11OpenImageIO6v3_1_08ImageBufD1Ev(ptr noundef nonnull align 8 dereferenceable(16) %0) #27
  resume { ptr, i32 } %13

14:                                               ; preds = %7, %10, %11
  ret void
}